; Function Attrs: nounwind sspstrong uwtable
define internal i64 @etc_passwd(i64 %0) #0 {
  %2 = tail call i32 @rb_block_given_p() #13
  %.not = icmp eq i32 %2, 0
  br i1 %.not, label %8, label %3

3:                                                ; preds = %1
  %4 = cmpxchg volatile ptr @passwd_blocking, i32 0, i32 1 seq_cst seq_cst, align 4
  %.not.i = extractvalue { i32, i1 } %4, 1
  br i1 %.not.i, label %each_passwd.exit, label %5

5:                                                ; preds = %3
  %6 = load i64, ptr @rb_eRuntimeError, align 8, !tbaa !6
  tail call void (i64, ptr, ...) @rb_raise(i64 noundef %6, ptr noundef nonnull @.str.218) #15
  unreachable

each_passwd.exit:                                 ; preds = %3
  %7 = tail call i64 @rb_ensure(ptr noundef nonnull @passwd_iterate, i64 noundef 0, ptr noundef nonnull @passwd_ensure, i64 noundef 0) #13
  br label %42

8:                                                ; preds = %1
  %9 = tail call ptr @getpwent() #13
  %.not2 = icmp eq ptr %9, null
  br i1 %.not2, label %42, label %10

10:                                               ; preds = %8
  %11 = load i64, ptr @sPasswd, align 8, !tbaa !6
  %12 = load ptr, ptr %9, align 8, !tbaa !10
  %13 = icmp eq ptr %12, null
  %spec.store.select.i.i = select i1 %13, ptr @.str.216, ptr %12
  %14 = tail call i64 @rb_locale_str_new_cstr(ptr noundef nonnull %spec.store.select.i.i) #13
  %15 = getelementptr inbounds nuw i8, ptr %9, i64 8
  %16 = load ptr, ptr %15, align 8, !tbaa !15
  %17 = icmp eq ptr %16, null
  %spec.store.select.i8.i = select i1 %17, ptr @.str.216, ptr %16
  %18 = tail call i64 @rb_str_new_cstr(ptr noundef nonnull %spec.store.select.i8.i) #13
  %19 = getelementptr inbounds nuw i8, ptr %9, i64 16
  %20 = load i32, ptr %19, align 8, !tbaa !16
  %21 = zext i32 %20 to i64
  %22 = shl nuw nsw i64 %21, 1
  %23 = or disjoint i64 %22, 1
  %24 = getelementptr inbounds nuw i8, ptr %9, i64 20
  %25 = load i32, ptr %24, align 4, !tbaa !17
  %26 = zext i32 %25 to i64
  %27 = shl nuw nsw i64 %26, 1
  %28 = or disjoint i64 %27, 1
  %29 = getelementptr inbounds nuw i8, ptr %9, i64 24
  %30 = load ptr, ptr %29, align 8, !tbaa !18
  %31 = icmp eq ptr %30, null
  %spec.store.select.i9.i = select i1 %31, ptr @.str.216, ptr %30
  %32 = tail call i64 @rb_locale_str_new_cstr(ptr noundef nonnull %spec.store.select.i9.i) #13
  %33 = getelementptr inbounds nuw i8, ptr %9, i64 32
  %34 = load ptr, ptr %33, align 8, !tbaa !19
  %35 = icmp eq ptr %34, null
  %spec.store.select.i10.i = select i1 %35, ptr @.str.216, ptr %34
  %36 = tail call i64 @rb_filesystem_str_new_cstr(ptr noundef nonnull %spec.store.select.i10.i) #13
  %37 = getelementptr inbounds nuw i8, ptr %9, i64 40
  %38 = load ptr, ptr %37, align 8, !tbaa !20
  %39 = icmp eq ptr %38, null
  %spec.store.select.i11.i = select i1 %39, ptr @.str.216, ptr %38
  %40 = tail call i64 @rb_filesystem_str_new_cstr(ptr noundef nonnull %spec.store.select.i11.i) #13
  %41 = tail call i64 (i64, ...) @rb_struct_new(i64 noundef %11, i64 noundef %14, i64 noundef %18, i64 noundef %23, i64 noundef %28, i64 noundef %32, i64 noundef %36, i64 noundef %40, i32 noundef 0) #13
  br label %42

42:                                               ; preds = %each_passwd.exit, %8, %10
  %.0 = phi i64 [ %41, %10 ], [ 4, %8 ], [ 4, %each_passwd.exit ]
  ret i64 %.0
}